target datalayout = "e-m:e-p270:32:32-p271:32:32-p272:64:64-i64:64-i128:128-f80:128-n8:16:32:64-S128"
target triple = "x86_64-pc-linux-gnu"

%class.QObject = type { ptr, %class.QScopedPointer }
%class.QScopedPointer = type { ptr }
%class.CMainWindow = type { %class.QMainWindow, ptr, ptr, i32, i32, ptr, ptr, ptr, ptr, ptr, ptr, ptr, ptr, ptr, ptr, ptr, ptr, ptr, ptr, ptr, ptr, ptr, ptr, ptr, ptr, ptr, ptr, ptr, ptr, ptr, ptr, ptr }
%class.QMainWindow = type { %class.QWidget }
%class.QWidget = type { %class.QObject, %class.QPaintDevice.base, ptr }
%class.QPaintDevice.base = type <{ ptr, i16 }>
%class.QEvent = type { ptr, i16, i8, i8, i8, i8, i16 }

; Function Attrs: inlinehint mustprogress nounwind uwtable
define linkonce_odr void @_ZN6QEvent6acceptEv(ptr noundef nonnull align 8 dereferenceable(16) %0) #4 comdat align 2 {
  %2 = alloca ptr, align 8
  store ptr %0, ptr %2, align 8, !tbaa !156
  %3 = load ptr, ptr %2, align 8
  %4 = getelementptr inbounds nuw %class.QEvent, ptr %3, i32 0, i32 4
  store i8 1, ptr %4, align 4, !tbaa !158
  ret void
}

; Function Attrs: inlinehint mustprogress nounwind uwtable
define linkonce_odr void @_ZN6QEvent6ignoreEv(ptr noundef nonnull align 8 dereferenceable(16) %0) #4 comdat align 2 {
  %2 = alloca ptr, align 8
  store ptr %0, ptr %2, align 8, !tbaa !156
  %3 = load ptr, ptr %2, align 8
  %4 = getelementptr inbounds nuw %class.QEvent, ptr %3, i32 0, i32 4
  store i8 0, ptr %4, align 4, !tbaa !158
  ret void
}

; Function Attrs: mustprogress uwtable
define void @_ZN11CMainWindow10closeEventEP11QCloseEvent(ptr noundef nonnull align 8 dereferenceable(280) %0, ptr noundef %1) unnamed_addr #0 align 2 {
  %3 = alloca ptr, align 8
  %4 = alloca ptr, align 8
  store ptr %0, ptr %3, align 8, !tbaa !21
  store ptr %1, ptr %4, align 8, !tbaa !154
  %5 = load ptr, ptr %3, align 8
  %6 = getelementptr inbounds nuw %class.CMainWindow, ptr %5, i32 0, i32 1
  %7 = load ptr, ptr %6, align 8, !tbaa !70
  call void @_ZN8QMdiArea18closeAllSubWindowsEv(ptr noundef nonnull align 8 dereferenceable(40) %7)
  %8 = getelementptr inbounds nuw %class.CMainWindow, ptr %5, i32 0, i32 1
  %9 = load ptr, ptr %8, align 8, !tbaa !70
  %10 = call noundef ptr @_ZNK8QMdiArea16currentSubWindowEv(ptr noundef nonnull align 8 dereferenceable(40) %9)
  %11 = icmp ne ptr %10, null
  br i1 %11, label %12, label %14

12:                                               ; preds = %2
  %13 = load ptr, ptr %4, align 8, !tbaa !154
  call void @_ZN6QEvent6ignoreEv(ptr noundef nonnull align 8 dereferenceable(16) %13)
  br label %16

14:                                               ; preds = %2
  call void @_ZN11CMainWindow13writeSettingsEv(ptr noundef nonnull align 8 dereferenceable(280) %5)
  %15 = load ptr, ptr %4, align 8, !tbaa !154
  call void @_ZN6QEvent6acceptEv(ptr noundef nonnull align 8 dereferenceable(16) %15)
  br label %16

16:                                               ; preds = %14, %12
  ret void
}