; Function Attrs: mustprogress uwtable
define void @_ZN11CMainWindow10closeEventEP11QCloseEvent(ptr noundef nonnull align 8 dereferenceable(280) %0, ptr noundef writeonly captures(none) initializes((12, 13)) %1) unnamed_addr #0 align 2 {
  %3 = getelementptr inbounds nuw i8, ptr %0, i64 40
  %4 = load ptr, ptr %3, align 8, !tbaa !48
  tail call void @_ZN8QMdiArea18closeAllSubWindowsEv(ptr noundef nonnull align 8 dereferenceable(40) %4)
  %5 = load ptr, ptr %3, align 8, !tbaa !48
  %6 = tail call noundef ptr @_ZNK8QMdiArea16currentSubWindowEv(ptr noundef nonnull align 8 dereferenceable(40) %5)
  %.not = icmp eq ptr %6, null
  br i1 %.not, label %7, label %8

7:                                                ; preds = %2
  tail call void @_ZN11CMainWindow13writeSettingsEv(ptr noundef nonnull align 8 dereferenceable(280) %0)
  br label %8

8:                                                ; preds = %2, %7
  %.sink = phi i8 [ 1, %7 ], [ 0, %2 ]
  %9 = getelementptr inbounds nuw i8, ptr %1, i64 12
  store i8 %.sink, ptr %9, align 4, !tbaa !175
  ret void
}